; ModuleID = 'source-C-CXX/48/933.cpp'
source_filename = "source-C-CXX/48/933.cpp"
target datalayout = "e-m:e-p270:32:32-p271:32:32-p272:64:64-i64:64-f80:128-n8:16:32:64-S128"
target triple = "x86_64-pc-linux-gnu"

%"class.std::ios_base::Init" = type { i8 }
%"class.std::basic_istream" = type { i32 (...)**, i64, %"class.std::basic_ios" }
%"class.std::basic_ios" = type { %"class.std::ios_base", %"class.std::basic_ostream"*, i8, i8, %"class.std::basic_streambuf"*, %"class.std::ctype"*, %"class.std::num_put"*, %"class.std::num_get"* }
%"class.std::ios_base" = type { i32 (...)**, i64, i64, i32, i32, i32, %"struct.std::ios_base::_Callback_list"*, %"struct.std::ios_base::_Words", [8 x %"struct.std::ios_base::_Words"], i32, %"struct.std::ios_base::_Words"*, %"class.std::locale" }
%"struct.std::ios_base::_Callback_list" = type { %"struct.std::ios_base::_Callback_list"*, void (i32, %"class.std::ios_base"*, i32)*, i32, i32 }
%"struct.std::ios_base::_Words" = type { i8*, i64 }
%"class.std::locale" = type { %"class.std::locale::_Impl"* }
%"class.std::locale::_Impl" = type { i32, %"class.std::locale::facet"**, i64, %"class.std::locale::facet"**, i8** }
%"class.std::locale::facet" = type <{ i32 (...)**, i32, [4 x i8] }>
%"class.std::basic_ostream" = type { i32 (...)**, %"class.std::basic_ios" }
%"class.std::basic_streambuf" = type { i32 (...)**, i8*, i8*, i8*, i8*, i8*, i8*, %"class.std::locale" }
%"class.std::ctype" = type <{ %"class.std::locale::facet.base", [4 x i8], %struct.__locale_struct*, i8, [7 x i8], i32*, i32*, i16*, i8, [256 x i8], [256 x i8], i8, [6 x i8] }>
%"class.std::locale::facet.base" = type <{ i32 (...)**, i32 }>
%struct.__locale_struct = type { [13 x %struct.__locale_data*], i16*, i32*, i32*, [13 x i8*] }
%struct.__locale_data = type opaque
%"class.std::num_put" = type { %"class.std::locale::facet.base", [4 x i8] }
%"class.std::num_get" = type { %"class.std::locale::facet.base", [4 x i8] }

@_ZStL8__ioinit = internal global %"class.std::ios_base::Init" zeroinitializer, align 1
@__dso_handle = external hidden global i8
@_ZSt3cin = external global %"class.std::basic_istream", align 8
@_ZSt4cout = external global %"class.std::basic_ostream", align 8
@llvm.global_ctors = appending global [1 x { i32, void ()*, i8* }] [{ i32, void ()*, i8* } { i32 65535, void ()* @_GLOBAL__sub_I_933.cpp, i8* null }]

declare void @_ZNSt8ios_base4InitC1Ev(%"class.std::ios_base::Init"* nonnull align 1 dereferenceable(1)) unnamed_addr #0

; Function Attrs: nounwind
declare void @_ZNSt8ios_base4InitD1Ev(%"class.std::ios_base::Init"* nonnull align 1 dereferenceable(1)) unnamed_addr #1

; Function Attrs: nofree nounwind
declare i32 @__cxa_atexit(void (i8*)*, i8*, i8*) local_unnamed_addr #2

; Function Attrs: mustprogress norecurse sspstrong uwtable
define dso_local i32 @main() local_unnamed_addr #3 {
  %1 = alloca i8, align 1
  %2 = alloca [500 x i8], align 16
  %3 = getelementptr inbounds [500 x i8], [500 x i8]* %2, i64 0, i64 0
  call void @llvm.lifetime.start.p0i8(i64 500, i8* nonnull %3) #8
  call void @_ZSt17__istream_extractRSiPcl(%"class.std::basic_istream"* nonnull align 8 dereferenceable(16) @_ZSt3cin, i8* nonnull %3, i64 500)
  %4 = call i64 @strlen(i8* noundef nonnull %3) #9
  %5 = icmp ult i64 %4, 2
  br i1 %5, label %90, label %6

6:                                                ; preds = %0, %83
  %7 = phi i64 [ %84, %83 ], [ 2, %0 ]
  %8 = phi i64 [ %89, %83 ], [ 1, %0 ]
  %9 = phi i32 [ %85, %83 ], [ -2, %0 ]
  %10 = trunc i64 %7 to i32
  %11 = lshr i32 %10, 1
  %12 = add nsw i64 %7, -1
  %13 = call i64 @strlen(i8* noundef nonnull %3) #9
  %14 = icmp ugt i64 %13, %12
  br i1 %14, label %15, label %83

15:                                               ; preds = %6
  %16 = zext i32 %11 to i64
  br label %17

17:                                               ; preds = %15, %65
  %18 = phi i64 [ %8, %15 ], [ %66, %65 ]
  %19 = trunc i64 %18 to i32
  br label %20

20:                                               ; preds = %17, %80
  %21 = phi i64 [ 0, %17 ], [ %25, %80 ]
  %22 = sub nsw i64 %18, %21
  %23 = getelementptr inbounds [500 x i8], [500 x i8]* %2, i64 0, i64 %22
  %24 = load i8, i8* %23, align 1, !tbaa !5
  %25 = add nuw nsw i64 %21, 1
  %26 = trunc i64 %25 to i32
  %27 = add i32 %9, %26
  %28 = add i32 %27, %19
  %29 = sext i32 %28 to i64
  %30 = getelementptr inbounds [500 x i8], [500 x i8]* %2, i64 0, i64 %29
  %31 = load i8, i8* %30, align 1, !tbaa !5
  %32 = icmp eq i8 %24, %31
  br i1 %32, label %80, label %33

33:                                               ; preds = %20
  %34 = trunc i64 %21 to i32
  %35 = icmp eq i32 %11, %34
  br i1 %35, label %36, label %65

36:                                               ; preds = %80, %33
  %37 = trunc i64 %18 to i32
  br label %69

38:                                               ; preds = %69
  %39 = load i8*, i8** bitcast (%"class.std::basic_ostream"* @_ZSt4cout to i8**), align 8, !tbaa !8
  %40 = getelementptr i8, i8* %39, i64 -24
  %41 = bitcast i8* %40 to i64*
  %42 = load i64, i64* %41, align 8
  %43 = add nsw i64 %42, 240
  %44 = getelementptr inbounds i8, i8* bitcast (%"class.std::basic_ostream"* @_ZSt4cout to i8*), i64 %43
  %45 = bitcast i8* %44 to %"class.std::ctype"**
  %46 = load %"class.std::ctype"*, %"class.std::ctype"** %45, align 8, !tbaa !10
  %47 = icmp eq %"class.std::ctype"* %46, null
  br i1 %47, label %82, label %48

48:                                               ; preds = %38
  %49 = getelementptr inbounds %"class.std::ctype", %"class.std::ctype"* %46, i64 0, i32 8
  %50 = load i8, i8* %49, align 8, !tbaa !14
  %51 = icmp eq i8 %50, 0
  br i1 %51, label %55, label %52

52:                                               ; preds = %48
  %53 = getelementptr inbounds %"class.std::ctype", %"class.std::ctype"* %46, i64 0, i32 9, i64 10
  %54 = load i8, i8* %53, align 1, !tbaa !5
  br label %61

55:                                               ; preds = %48
  call void @_ZNKSt5ctypeIcE13_M_widen_initEv(%"class.std::ctype"* nonnull align 8 dereferenceable(570) %46)
  %56 = bitcast %"class.std::ctype"* %46 to i8 (%"class.std::ctype"*, i8)***
  %57 = load i8 (%"class.std::ctype"*, i8)**, i8 (%"class.std::ctype"*, i8)*** %56, align 8, !tbaa !8
  %58 = getelementptr inbounds i8 (%"class.std::ctype"*, i8)*, i8 (%"class.std::ctype"*, i8)** %57, i64 6
  %59 = load i8 (%"class.std::ctype"*, i8)*, i8 (%"class.std::ctype"*, i8)** %58, align 8
  %60 = call signext i8 %59(%"class.std::ctype"* nonnull align 8 dereferenceable(570) %46, i8 signext 10)
  br label %61

61:                                               ; preds = %55, %52
  %62 = phi i8 [ %54, %52 ], [ %60, %55 ]
  %63 = call nonnull align 8 dereferenceable(8) %"class.std::basic_ostream"* @_ZNSo3putEc(%"class.std::basic_ostream"* nonnull align 8 dereferenceable(8) @_ZSt4cout, i8 signext %62)
  %64 = call nonnull align 8 dereferenceable(8) %"class.std::basic_ostream"* @_ZNSo5flushEv(%"class.std::basic_ostream"* nonnull align 8 dereferenceable(8) %63)
  br label %65

65:                                               ; preds = %61, %33
  %66 = add nuw i64 %18, 1
  %67 = call i64 @strlen(i8* noundef nonnull %3) #9
  %68 = icmp ugt i64 %67, %66
  br i1 %68, label %17, label %83, !llvm.loop !16

69:                                               ; preds = %36, %69
  %70 = phi i64 [ 0, %36 ], [ %71, %69 ]
  %71 = add nuw nsw i64 %70, 1
  %72 = trunc i64 %71 to i32
  %73 = add i32 %9, %72
  %74 = add i32 %73, %37
  %75 = sext i32 %74 to i64
  %76 = getelementptr inbounds [500 x i8], [500 x i8]* %2, i64 0, i64 %75
  %77 = load i8, i8* %76, align 1, !tbaa !5
  call void @llvm.lifetime.start.p0i8(i64 1, i8* nonnull %1)
  store i8 %77, i8* %1, align 1, !tbaa !5
  %78 = call nonnull align 8 dereferenceable(8) %"class.std::basic_ostream"* @_ZSt16__ostream_insertIcSt11char_traitsIcEERSt13basic_ostreamIT_T0_ES6_PKS3_l(%"class.std::basic_ostream"* nonnull align 8 dereferenceable(8) @_ZSt4cout, i8* nonnull %1, i64 1)
  call void @llvm.lifetime.end.p0i8(i64 1, i8* nonnull %1)
  %79 = icmp eq i64 %71, %7
  br i1 %79, label %38, label %69, !llvm.loop !18

80:                                               ; preds = %20
  %81 = icmp eq i64 %25, %16
  br i1 %81, label %36, label %20, !llvm.loop !19

82:                                               ; preds = %38
  call void @_ZSt16__throw_bad_castv() #10
  unreachable

83:                                               ; preds = %65, %6
  %84 = add nuw i64 %7, 1
  %85 = xor i32 %10, -1
  %86 = and i64 %84, 4294967295
  %87 = call i64 @strlen(i8* noundef nonnull %3) #9
  %88 = icmp ult i64 %87, %86
  %89 = add nuw nsw i64 %8, 1
  br i1 %88, label %90, label %6, !llvm.loop !20

90:                                               ; preds = %83, %0
  call void @llvm.lifetime.end.p0i8(i64 500, i8* nonnull %3) #8
  ret i32 0
}

; Function Attrs: argmemonly mustprogress nofree nosync nounwind willreturn
declare void @llvm.lifetime.start.p0i8(i64 immarg, i8* nocapture) #4

; Function Attrs: argmemonly mustprogress nofree nounwind readonly willreturn
declare i64 @strlen(i8* nocapture) local_unnamed_addr #5

; Function Attrs: argmemonly mustprogress nofree nosync nounwind willreturn
declare void @llvm.lifetime.end.p0i8(i64 immarg, i8* nocapture) #4

declare void @_ZSt17__istream_extractRSiPcl(%"class.std::basic_istream"* nonnull align 8 dereferenceable(16), i8*, i64) local_unnamed_addr #0

declare nonnull align 8 dereferenceable(8) %"class.std::basic_ostream"* @_ZSt16__ostream_insertIcSt11char_traitsIcEERSt13basic_ostreamIT_T0_ES6_PKS3_l(%"class.std::basic_ostream"* nonnull align 8 dereferenceable(8), i8*, i64) local_unnamed_addr #0

declare nonnull align 8 dereferenceable(8) %"class.std::basic_ostream"* @_ZNSo3putEc(%"class.std::basic_ostream"* nonnull align 8 dereferenceable(8), i8 signext) local_unnamed_addr #0

declare nonnull align 8 dereferenceable(8) %"class.std::basic_ostream"* @_ZNSo5flushEv(%"class.std::basic_ostream"* nonnull align 8 dereferenceable(8)) local_unnamed_addr #0

; Function Attrs: noreturn
declare void @_ZSt16__throw_bad_castv() local_unnamed_addr #6

declare void @_ZNKSt5ctypeIcE13_M_widen_initEv(%"class.std::ctype"* nonnull align 8 dereferenceable(570)) local_unnamed_addr #0

; Function Attrs: sspstrong uwtable
define internal void @_GLOBAL__sub_I_933.cpp() #7 section ".text.startup" {
  tail call void @_ZNSt8ios_base4InitC1Ev(%"class.std::ios_base::Init"* nonnull align 1 dereferenceable(1) @_ZStL8__ioinit)
  %1 = tail call i32 @__cxa_atexit(void (i8*)* bitcast (void (%"class.std::ios_base::Init"*)* @_ZNSt8ios_base4InitD1Ev to void (i8*)*), i8* getelementptr inbounds (%"class.std::ios_base::Init", %"class.std::ios_base::Init"* @_ZStL8__ioinit, i64 0, i32 0), i8* nonnull @__dso_handle) #8
  ret void
}


!llvm.module.flags = !{!0, !1, !2, !3}
!llvm.ident = !{!4}

!0 = !{i32 1, !"wchar_size", i32 4}
!1 = !{i32 7, !"PIC Level", i32 2}
!2 = !{i32 7, !"PIE Level", i32 2}
!3 = !{i32 7, !"uwtable", i32 1}
!4 = !{!"clang version 13.0.0"}
!5 = !{!6, !6, i64 0}
!6 = !{!"omnipotent char", !7, i64 0}
!7 = !{!"Simple C++ TBAA"}
!8 = !{!9, !9, i64 0}
!9 = !{!"vtable pointer", !7, i64 0}
!10 = !{!11, !12, i64 240}
!11 = !{!"_ZTSSt9basic_iosIcSt11char_traitsIcEE", !12, i64 216, !6, i64 224, !13, i64 225, !12, i64 232, !12, i64 240, !12, i64 248, !12, i64 256}
!12 = !{!"any pointer", !6, i64 0}
!13 = !{!"bool", !6, i64 0}
!14 = !{!15, !6, i64 56}
!15 = !{!"_ZTSSt5ctypeIcE", !12, i64 16, !13, i64 24, !12, i64 32, !12, i64 40, !12, i64 48, !6, i64 56, !6, i64 57, !6, i64 313, !6, i64 569}
!16 = distinct !{!16, !17}
!17 = !{!"llvm.loop.mustprogress"}
!18 = distinct !{!18, !17}
!19 = distinct !{!19, !17}
!20 = distinct !{!20, !17}
